; Function Attrs: mustprogress nounwind uwtable
define hidden noundef i32 @_ZNK14JfrOSInterface18JfrOSInterfaceImpl10os_versionEPPc(ptr nocapture noundef nonnull readnone align 8 dereferenceable(32) %0, ptr nocapture noundef writeonly %1) local_unnamed_addr #1 align 2 {
  %3 = alloca %class.stringStream, align 8
  call void @_ZN12stringStreamC1Em(ptr noundef nonnull align 8 dereferenceable(129) %3, i64 noundef 0) #14
  call void @_ZN2os19print_os_info_briefEP12outputStream(ptr noundef nonnull %3) #14
  %4 = call noundef ptr @_ZNK12stringStream9as_stringEb(ptr noundef nonnull align 8 dereferenceable(129) %3, i1 noundef zeroext false) #14
  store ptr %4, ptr %1, align 8
  call void @_ZN12stringStreamD1Ev(ptr noundef nonnull align 8 dereferenceable(129) %3) #14
  ret i32 0
}